target datalayout = "e-m:e-p270:32:32-p271:32:32-p272:64:64-i64:64-i128:128-f80:128-n8:16:32:64-S128"
target triple = "x86_64-pc-linux-gnu"

%union.av_intfloat32 = type { i32 }

; Function Attrs: alwaysinline nounwind willreturn memory(none) uwtable
define internal float @av_clipf_c(float noundef %0, float noundef %1, float noundef %2) #4 {
  %4 = alloca float, align 4
  %5 = alloca float, align 4
  %6 = alloca float, align 4
  store float %0, ptr %4, align 4, !tbaa !135
  store float %1, ptr %5, align 4, !tbaa !135
  store float %2, ptr %6, align 4, !tbaa !135
  %7 = load float, ptr %4, align 4, !tbaa !135
  %8 = load float, ptr %5, align 4, !tbaa !135
  %9 = fcmp nsz ogt float %7, %8
  br i1 %9, label %10, label %12

10:                                               ; preds = %3
  %11 = load float, ptr %4, align 4, !tbaa !135
  br label %14

12:                                               ; preds = %3
  %13 = load float, ptr %5, align 4, !tbaa !135
  br label %14

14:                                               ; preds = %12, %10
  %15 = phi nsz float [ %11, %10 ], [ %13, %12 ]
  %16 = load float, ptr %6, align 4, !tbaa !135
  %17 = fcmp nsz ogt float %15, %16
  br i1 %17, label %18, label %20

18:                                               ; preds = %14
  %19 = load float, ptr %6, align 4, !tbaa !135
  br label %30

20:                                               ; preds = %14
  %21 = load float, ptr %4, align 4, !tbaa !135
  %22 = load float, ptr %5, align 4, !tbaa !135
  %23 = fcmp nsz ogt float %21, %22
  br i1 %23, label %24, label %26

24:                                               ; preds = %20
  %25 = load float, ptr %4, align 4, !tbaa !135
  br label %28

26:                                               ; preds = %20
  %27 = load float, ptr %5, align 4, !tbaa !135
  br label %28

28:                                               ; preds = %26, %24
  %29 = phi nsz float [ %25, %24 ], [ %27, %26 ]
  br label %30

30:                                               ; preds = %28, %18
  %31 = phi nsz float [ %19, %18 ], [ %29, %28 ]
  ret float %31
}

; Function Attrs: alwaysinline nounwind uwtable
define internal float @av_int2float(i32 noundef %0) #3 {
  %2 = alloca i32, align 4
  %3 = alloca %union.av_intfloat32, align 4
  store i32 %0, ptr %2, align 4, !tbaa !30
  call void @llvm.lifetime.start.p0(i64 4, ptr %3) #9
  %4 = load i32, ptr %2, align 4, !tbaa !30
  store i32 %4, ptr %3, align 4, !tbaa !36
  %5 = load float, ptr %3, align 4, !tbaa !36
  call void @llvm.lifetime.end.p0(i64 4, ptr %3) #9
  ret float %5
}

; Function Attrs: alwaysinline nounwind willreturn memory(none) uwtable
define internal i32 @av_bswap32(i32 noundef %0) #4 {
  %2 = alloca i32, align 4
  store i32 %0, ptr %2, align 4, !tbaa !30
  %3 = load i32, ptr %2, align 4, !tbaa !30
  %4 = shl i32 %3, 8
  %5 = and i32 %4, 65280
  %6 = load i32, ptr %2, align 4, !tbaa !30
  %7 = lshr i32 %6, 8
  %8 = and i32 %7, 255
  %9 = or i32 %5, %8
  %10 = shl i32 %9, 16
  %11 = load i32, ptr %2, align 4, !tbaa !30
  %12 = lshr i32 %11, 16
  %13 = shl i32 %12, 8
  %14 = and i32 %13, 65280
  %15 = load i32, ptr %2, align 4, !tbaa !30
  %16 = lshr i32 %15, 16
  %17 = lshr i32 %16, 8
  %18 = and i32 %17, 255
  %19 = or i32 %14, %18
  %20 = or i32 %10, %19
  ret i32 %20
}

; Function Attrs: alwaysinline nounwind uwtable
define internal void @planar_rgbf32_to_a(ptr noundef %0, ptr noundef %1, i32 noundef %2, i32 noundef %3, ptr noundef %4) #3 {
  %6 = alloca ptr, align 8
  %7 = alloca ptr, align 8
  %8 = alloca i32, align 4
  %9 = alloca i32, align 4
  %10 = alloca ptr, align 8
  %11 = alloca i32, align 4
  %12 = alloca ptr, align 8
  %13 = alloca ptr, align 8
  store ptr %0, ptr %6, align 8, !tbaa !34
  store ptr %1, ptr %7, align 8, !tbaa !47
  store i32 %2, ptr %8, align 4, !tbaa !30
  store i32 %3, ptr %9, align 4, !tbaa !30
  store ptr %4, ptr %10, align 8, !tbaa !35
  call void @llvm.lifetime.start.p0(i64 4, ptr %11) #9
  call void @llvm.lifetime.start.p0(i64 8, ptr %12) #9
  %14 = load ptr, ptr %7, align 8, !tbaa !47
  store ptr %14, ptr %12, align 8, !tbaa !130
  call void @llvm.lifetime.start.p0(i64 8, ptr %13) #9
  %15 = load ptr, ptr %6, align 8, !tbaa !34
  store ptr %15, ptr %13, align 8, !tbaa !43
  store i32 0, ptr %11, align 4, !tbaa !30
  br label %16

16:                                               ; preds = %52, %5
  %17 = load i32, ptr %11, align 4, !tbaa !30
  %18 = load i32, ptr %8, align 4, !tbaa !30
  %19 = icmp slt i32 %17, %18
  br i1 %19, label %20, label %55

20:                                               ; preds = %16
  %21 = load i32, ptr %9, align 4, !tbaa !30
  %22 = icmp ne i32 %21, 0
  br i1 %22, label %23, label %33

23:                                               ; preds = %20
  %24 = load ptr, ptr %12, align 8, !tbaa !130
  %25 = getelementptr inbounds ptr, ptr %24, i64 3
  %26 = load ptr, ptr %25, align 8, !tbaa !132
  %27 = load i32, ptr %11, align 4, !tbaa !30
  %28 = sext i32 %27 to i64
  %29 = getelementptr inbounds float, ptr %26, i64 %28
  %30 = load i32, ptr %29, align 1, !tbaa !36
  %31 = call i32 @av_bswap32(i32 noundef %30) #10
  %32 = call nsz float @av_int2float(i32 noundef %31)
  br label %42

33:                                               ; preds = %20
  %34 = load ptr, ptr %12, align 8, !tbaa !130
  %35 = getelementptr inbounds ptr, ptr %34, i64 3
  %36 = load ptr, ptr %35, align 8, !tbaa !132
  %37 = load i32, ptr %11, align 4, !tbaa !30
  %38 = sext i32 %37 to i64
  %39 = getelementptr inbounds float, ptr %36, i64 %38
  %40 = load i32, ptr %39, align 1, !tbaa !36
  %41 = call nsz float @av_int2float(i32 noundef %40)
  br label %42

42:                                               ; preds = %33, %23
  %43 = phi nsz float [ %32, %23 ], [ %41, %33 ]
  %44 = fmul nsz float 6.553500e+04, %43
  %45 = call nsz float @av_clipf_c(float noundef %44, float noundef 0.000000e+00, float noundef 6.553500e+04) #10
  %46 = call i64 @llvm.lrint.i64.f32(float %45)
  %47 = trunc i64 %46 to i16
  %48 = load ptr, ptr %13, align 8, !tbaa !43
  %49 = load i32, ptr %11, align 4, !tbaa !30
  %50 = sext i32 %49 to i64
  %51 = getelementptr inbounds i16, ptr %48, i64 %50
  store i16 %47, ptr %51, align 2, !tbaa !44
  br label %52

52:                                               ; preds = %42
  %53 = load i32, ptr %11, align 4, !tbaa !30
  %54 = add nsw i32 %53, 1
  store i32 %54, ptr %11, align 4, !tbaa !30
  br label %16, !llvm.loop !154

55:                                               ; preds = %16
  call void @llvm.lifetime.end.p0(i64 8, ptr %13) #9
  call void @llvm.lifetime.end.p0(i64 8, ptr %12) #9
  call void @llvm.lifetime.end.p0(i64 4, ptr %11) #9
  ret void
}

; Function Attrs: nounwind uwtable
define internal void @planar_rgbf32le_to_a(ptr noundef %0, ptr noundef %1, i32 noundef %2, ptr noundef %3, ptr noundef %4) #2 {
  %6 = alloca ptr, align 8
  %7 = alloca ptr, align 8
  %8 = alloca i32, align 4
  %9 = alloca ptr, align 8
  %10 = alloca ptr, align 8
  store ptr %0, ptr %6, align 8, !tbaa !34
  store ptr %1, ptr %7, align 8, !tbaa !47
  store i32 %2, ptr %8, align 4, !tbaa !30
  store ptr %3, ptr %9, align 8, !tbaa !35
  store ptr %4, ptr %10, align 8, !tbaa !31
  %11 = load ptr, ptr %6, align 8, !tbaa !34
  %12 = load ptr, ptr %7, align 8, !tbaa !47
  %13 = load i32, ptr %8, align 4, !tbaa !30
  %14 = load ptr, ptr %9, align 8, !tbaa !35
  call void @planar_rgbf32_to_a(ptr noundef %11, ptr noundef %12, i32 noundef %13, i32 noundef 0, ptr noundef %14)
  ret void
}